target datalayout = "e-m:e-p270:32:32-p271:32:32-p272:64:64-i64:64-i128:128-f80:128-n8:16:32:64-S128"
target triple = "x86_64-pc-linux-gnu"

%struct.AVChannelLayout = type { i32, i32, %union.anon, ptr }
%union.anon = type { i64 }
%struct.AVRational = type { i32, i32 }
%struct.AVFormatContext = type { ptr, ptr, ptr, ptr, ptr, i32, i32, ptr, i32, ptr, i32, ptr, ptr, i64, i64, i64, i32, i32, i32, i64, i64, ptr, i32, i32, ptr, i32, i32, i32, i32, ptr, i64, i32, i32, %struct.AVIOInterruptCB, i32, i32, i32, i32, i64, i32, i32, i32, i32, i32, i32, i32, i32, i32, i32, i32, i32, i64, i32, i32, i32, i32, i32, ptr, ptr, ptr, ptr, i32, ptr, ptr, ptr, ptr, i32, ptr, ptr, i64, ptr, ptr, ptr, i64 }
%struct.AVIOInterruptCB = type { ptr, ptr }
%struct.AVStream = type { ptr, i32, i32, ptr, ptr, %struct.AVRational, i64, i64, i64, i32, i32, %struct.AVRational, ptr, %struct.AVRational, %struct.AVPacket, i32, %struct.AVRational, i32 }
%struct.AVPacket = type { ptr, i64, i64, ptr, i32, i32, i32, ptr, i32, i64, i64, ptr, ptr, %struct.AVRational }
%struct.AVCodecParameters = type { i32, i32, i32, ptr, i32, ptr, i32, i32, i64, i32, i32, i32, i32, i32, i32, %struct.AVRational, %struct.AVRational, i32, i32, i32, i32, i32, i32, i32, %struct.AVChannelLayout, i32, i32, i32, i32, i32, i32 }
%struct.MviDemuxContext = type { ptr, i64, i64, i32, i32 }

@.str.2 = private unnamed_addr constant [27 x i8] c"unhandled version (%d,%d)\0A\00", align 1
@.str.3 = private unnamed_addr constant [51 x i8] c"Invalid audio_data_size (%d) or frames_count (%u)\0A\00", align 1

; Function Attrs: alwaysinline nounwind uwtable
define internal i64 @av_inv_q(i64 %0) #4 {
  %2 = alloca %struct.AVRational, align 4
  %3 = alloca %struct.AVRational, align 4
  store i64 %0, ptr %3, align 4
  %4 = getelementptr inbounds nuw %struct.AVRational, ptr %2, i32 0, i32 0
  %5 = getelementptr inbounds nuw %struct.AVRational, ptr %3, i32 0, i32 1
  %6 = load i32, ptr %5, align 4, !tbaa !66
  store i32 %6, ptr %4, align 4, !tbaa !67
  %7 = getelementptr inbounds nuw %struct.AVRational, ptr %2, i32 0, i32 1
  %8 = getelementptr inbounds nuw %struct.AVRational, ptr %3, i32 0, i32 0
  %9 = load i32, ptr %8, align 4, !tbaa !67
  store i32 %9, ptr %7, align 4, !tbaa !66
  %10 = load i64, ptr %2, align 4
  ret i64 %10
}

; Function Attrs: nounwind uwtable
define internal i32 @read_header(ptr noundef %0) #0 {
  %2 = alloca i32, align 4
  %3 = alloca ptr, align 8
  %4 = alloca ptr, align 8
  %5 = alloca ptr, align 8
  %6 = alloca ptr, align 8
  %7 = alloca ptr, align 8
  %8 = alloca i32, align 4
  %9 = alloca i32, align 4
  %10 = alloca i32, align 4
  %11 = alloca i32, align 4
  %12 = alloca i32, align 4
  %13 = alloca i32, align 4
  %14 = alloca i32, align 4
  %15 = alloca %struct.AVChannelLayout, align 8
  %16 = alloca %struct.AVRational, align 4
  store ptr %0, ptr %3, align 8, !tbaa !4
  call void @llvm.lifetime.start.p0(i64 8, ptr %4) #5
  %17 = load ptr, ptr %3, align 8, !tbaa !4
  %18 = getelementptr inbounds nuw %struct.AVFormatContext, ptr %17, i32 0, i32 3
  %19 = load ptr, ptr %18, align 8, !tbaa !9
  store ptr %19, ptr %4, align 8, !tbaa !26
  call void @llvm.lifetime.start.p0(i64 8, ptr %5) #5
  %20 = load ptr, ptr %3, align 8, !tbaa !4
  %21 = getelementptr inbounds nuw %struct.AVFormatContext, ptr %20, i32 0, i32 4
  %22 = load ptr, ptr %21, align 8, !tbaa !28
  store ptr %22, ptr %5, align 8, !tbaa !29
  call void @llvm.lifetime.start.p0(i64 8, ptr %6) #5
  call void @llvm.lifetime.start.p0(i64 8, ptr %7) #5
  call void @llvm.lifetime.start.p0(i64 4, ptr %8) #5
  call void @llvm.lifetime.start.p0(i64 4, ptr %9) #5
  call void @llvm.lifetime.start.p0(i64 4, ptr %10) #5
  call void @llvm.lifetime.start.p0(i64 4, ptr %11) #5
  call void @llvm.lifetime.start.p0(i64 4, ptr %12) #5
  call void @llvm.lifetime.start.p0(i64 4, ptr %13) #5
  %23 = load ptr, ptr %3, align 8, !tbaa !4
  %24 = call ptr @avformat_new_stream(ptr noundef %23, ptr noundef null)
  store ptr %24, ptr %6, align 8, !tbaa !30
  %25 = load ptr, ptr %6, align 8, !tbaa !30
  %26 = icmp ne ptr %25, null
  br i1 %26, label %28, label %27

27:                                               ; preds = %1
  store i32 -12, ptr %2, align 4
  store i32 1, ptr %14, align 4
  br label %222

28:                                               ; preds = %1
  %29 = load ptr, ptr %3, align 8, !tbaa !4
  %30 = call ptr @avformat_new_stream(ptr noundef %29, ptr noundef null)
  store ptr %30, ptr %7, align 8, !tbaa !30
  %31 = load ptr, ptr %7, align 8, !tbaa !30
  %32 = icmp ne ptr %31, null
  br i1 %32, label %34, label %33

33:                                               ; preds = %28
  store i32 -12, ptr %2, align 4
  store i32 1, ptr %14, align 4
  br label %222

34:                                               ; preds = %28
  %35 = load ptr, ptr %7, align 8, !tbaa !30
  %36 = getelementptr inbounds nuw %struct.AVStream, ptr %35, i32 0, i32 3
  %37 = load ptr, ptr %36, align 8, !tbaa !32
  %38 = call i32 @ff_alloc_extradata(ptr noundef %37, i32 noundef 2)
  store i32 %38, ptr %12, align 4, !tbaa !39
  %39 = icmp slt i32 %38, 0
  br i1 %39, label %40, label %42

40:                                               ; preds = %34
  %41 = load i32, ptr %12, align 4, !tbaa !39
  store i32 %41, ptr %2, align 4
  store i32 1, ptr %14, align 4
  br label %222

42:                                               ; preds = %34
  %43 = load ptr, ptr %5, align 8, !tbaa !29
  %44 = call i32 @avio_r8(ptr noundef %43)
  store i32 %44, ptr %8, align 4, !tbaa !39
  %45 = load ptr, ptr %5, align 8, !tbaa !29
  %46 = call i32 @avio_r8(ptr noundef %45)
  %47 = trunc i32 %46 to i8
  %48 = load ptr, ptr %7, align 8, !tbaa !30
  %49 = getelementptr inbounds nuw %struct.AVStream, ptr %48, i32 0, i32 3
  %50 = load ptr, ptr %49, align 8, !tbaa !32
  %51 = getelementptr inbounds nuw %struct.AVCodecParameters, ptr %50, i32 0, i32 3
  %52 = load ptr, ptr %51, align 8, !tbaa !40
  %53 = getelementptr inbounds i8, ptr %52, i64 0
  store i8 %47, ptr %53, align 1, !tbaa !43
  %54 = load ptr, ptr %5, align 8, !tbaa !29
  %55 = call i32 @avio_r8(ptr noundef %54)
  %56 = trunc i32 %55 to i8
  %57 = load ptr, ptr %7, align 8, !tbaa !30
  %58 = getelementptr inbounds nuw %struct.AVStream, ptr %57, i32 0, i32 3
  %59 = load ptr, ptr %58, align 8, !tbaa !32
  %60 = getelementptr inbounds nuw %struct.AVCodecParameters, ptr %59, i32 0, i32 3
  %61 = load ptr, ptr %60, align 8, !tbaa !40
  %62 = getelementptr inbounds i8, ptr %61, i64 1
  store i8 %56, ptr %62, align 1, !tbaa !43
  %63 = load ptr, ptr %5, align 8, !tbaa !29
  %64 = call i32 @avio_rl32(ptr noundef %63)
  store i32 %64, ptr %9, align 4, !tbaa !39
  %65 = load ptr, ptr %5, align 8, !tbaa !29
  %66 = call i32 @avio_rl32(ptr noundef %65)
  store i32 %66, ptr %10, align 4, !tbaa !39
  %67 = load ptr, ptr %5, align 8, !tbaa !29
  %68 = call i32 @avio_rl16(ptr noundef %67)
  %69 = load ptr, ptr %7, align 8, !tbaa !30
  %70 = getelementptr inbounds nuw %struct.AVStream, ptr %69, i32 0, i32 3
  %71 = load ptr, ptr %70, align 8, !tbaa !32
  %72 = getelementptr inbounds nuw %struct.AVCodecParameters, ptr %71, i32 0, i32 13
  store i32 %68, ptr %72, align 8, !tbaa !44
  %73 = load ptr, ptr %5, align 8, !tbaa !29
  %74 = call i32 @avio_rl16(ptr noundef %73)
  %75 = load ptr, ptr %7, align 8, !tbaa !30
  %76 = getelementptr inbounds nuw %struct.AVStream, ptr %75, i32 0, i32 3
  %77 = load ptr, ptr %76, align 8, !tbaa !32
  %78 = getelementptr inbounds nuw %struct.AVCodecParameters, ptr %77, i32 0, i32 14
  store i32 %74, ptr %78, align 4, !tbaa !45
  %79 = load ptr, ptr %5, align 8, !tbaa !29
  %80 = call i32 @avio_r8(ptr noundef %79)
  %81 = load ptr, ptr %5, align 8, !tbaa !29
  %82 = call i32 @avio_rl16(ptr noundef %81)
  %83 = load ptr, ptr %6, align 8, !tbaa !30
  %84 = getelementptr inbounds nuw %struct.AVStream, ptr %83, i32 0, i32 3
  %85 = load ptr, ptr %84, align 8, !tbaa !32
  %86 = getelementptr inbounds nuw %struct.AVCodecParameters, ptr %85, i32 0, i32 25
  store i32 %82, ptr %86, align 8, !tbaa !46
  %87 = load ptr, ptr %5, align 8, !tbaa !29
  %88 = call i32 @avio_rl32(ptr noundef %87)
  store i32 %88, ptr %13, align 4, !tbaa !39
  %89 = load ptr, ptr %5, align 8, !tbaa !29
  %90 = call i32 @avio_r8(ptr noundef %89)
  %91 = load ptr, ptr %5, align 8, !tbaa !29
  %92 = call i32 @avio_rl32(ptr noundef %91)
  store i32 %92, ptr %11, align 4, !tbaa !39
  %93 = load ptr, ptr %5, align 8, !tbaa !29
  %94 = call i32 @avio_rl16(ptr noundef %93)
  %95 = load ptr, ptr %5, align 8, !tbaa !29
  %96 = call i32 @avio_r8(ptr noundef %95)
  %97 = load i32, ptr %9, align 4, !tbaa !39
  %98 = icmp eq i32 %97, 0
  br i1 %98, label %102, label %99

99:                                               ; preds = %42
  %100 = load i32, ptr %13, align 4, !tbaa !39
  %101 = icmp sle i32 %100, 0
  br i1 %101, label %102, label %103

102:                                              ; preds = %99, %42
  store i32 -1094995529, ptr %2, align 4
  store i32 1, ptr %14, align 4
  br label %222

103:                                              ; preds = %99
  %104 = load i32, ptr %8, align 4, !tbaa !39
  %105 = icmp ne i32 %104, 7
  br i1 %105, label %109, label %106

106:                                              ; preds = %103
  %107 = load i32, ptr %11, align 4, !tbaa !39
  %108 = icmp ugt i32 %107, 213
  br i1 %108, label %109, label %113

109:                                              ; preds = %106, %103
  %110 = load ptr, ptr %3, align 8, !tbaa !4
  %111 = load i32, ptr %8, align 4, !tbaa !39
  %112 = load i32, ptr %11, align 4, !tbaa !39
  call void (ptr, i32, ptr, ...) @av_log(ptr noundef %110, i32 noundef 16, ptr noundef @.str.2, i32 noundef %111, i32 noundef %112)
  store i32 -1094995529, ptr %2, align 4
  store i32 1, ptr %14, align 4
  br label %222

113:                                              ; preds = %106
  %114 = load ptr, ptr %6, align 8, !tbaa !30
  %115 = load ptr, ptr %6, align 8, !tbaa !30
  %116 = getelementptr inbounds nuw %struct.AVStream, ptr %115, i32 0, i32 3
  %117 = load ptr, ptr %116, align 8, !tbaa !32
  %118 = getelementptr inbounds nuw %struct.AVCodecParameters, ptr %117, i32 0, i32 25
  %119 = load i32, ptr %118, align 8, !tbaa !46
  call void @avpriv_set_pts_info(ptr noundef %114, i32 noundef 64, i32 noundef 1, i32 noundef %119)
  %120 = load ptr, ptr %6, align 8, !tbaa !30
  %121 = getelementptr inbounds nuw %struct.AVStream, ptr %120, i32 0, i32 3
  %122 = load ptr, ptr %121, align 8, !tbaa !32
  %123 = getelementptr inbounds nuw %struct.AVCodecParameters, ptr %122, i32 0, i32 0
  store i32 1, ptr %123, align 8, !tbaa !47
  %124 = load ptr, ptr %6, align 8, !tbaa !30
  %125 = getelementptr inbounds nuw %struct.AVStream, ptr %124, i32 0, i32 3
  %126 = load ptr, ptr %125, align 8, !tbaa !32
  %127 = getelementptr inbounds nuw %struct.AVCodecParameters, ptr %126, i32 0, i32 1
  store i32 65541, ptr %127, align 4, !tbaa !48
  %128 = load ptr, ptr %6, align 8, !tbaa !30
  %129 = getelementptr inbounds nuw %struct.AVStream, ptr %128, i32 0, i32 3
  %130 = load ptr, ptr %129, align 8, !tbaa !32
  %131 = getelementptr inbounds nuw %struct.AVCodecParameters, ptr %130, i32 0, i32 24
  %132 = getelementptr inbounds nuw %struct.AVChannelLayout, ptr %15, i32 0, i32 0
  store i32 1, ptr %132, align 8, !tbaa !49
  %133 = getelementptr inbounds nuw %struct.AVChannelLayout, ptr %15, i32 0, i32 1
  store i32 1, ptr %133, align 4, !tbaa !50
  %134 = getelementptr inbounds nuw %struct.AVChannelLayout, ptr %15, i32 0, i32 2
  store i64 4, ptr %134, align 8, !tbaa !43
  %135 = getelementptr inbounds nuw %struct.AVChannelLayout, ptr %15, i32 0, i32 3
  store ptr null, ptr %135, align 8, !tbaa !51
  call void @llvm.memcpy.p0.p0.i64(ptr align 8 %131, ptr align 8 %15, i64 24, i1 false), !tbaa.struct !52
  %136 = load ptr, ptr %6, align 8, !tbaa !30
  %137 = getelementptr inbounds nuw %struct.AVStream, ptr %136, i32 0, i32 3
  %138 = load ptr, ptr %137, align 8, !tbaa !32
  %139 = getelementptr inbounds nuw %struct.AVCodecParameters, ptr %138, i32 0, i32 9
  store i32 8, ptr %139, align 8, !tbaa !54
  %140 = load ptr, ptr %6, align 8, !tbaa !30
  %141 = getelementptr inbounds nuw %struct.AVStream, ptr %140, i32 0, i32 3
  %142 = load ptr, ptr %141, align 8, !tbaa !32
  %143 = getelementptr inbounds nuw %struct.AVCodecParameters, ptr %142, i32 0, i32 25
  %144 = load i32, ptr %143, align 8, !tbaa !46
  %145 = mul nsw i32 %144, 8
  %146 = sext i32 %145 to i64
  %147 = load ptr, ptr %6, align 8, !tbaa !30
  %148 = getelementptr inbounds nuw %struct.AVStream, ptr %147, i32 0, i32 3
  %149 = load ptr, ptr %148, align 8, !tbaa !32
  %150 = getelementptr inbounds nuw %struct.AVCodecParameters, ptr %149, i32 0, i32 8
  store i64 %146, ptr %150, align 8, !tbaa !55
  %151 = load ptr, ptr %7, align 8, !tbaa !30
  %152 = load i32, ptr %10, align 4, !tbaa !39
  call void @avpriv_set_pts_info(ptr noundef %151, i32 noundef 64, i32 noundef %152, i32 noundef 1000000)
  %153 = load ptr, ptr %7, align 8, !tbaa !30
  %154 = getelementptr inbounds nuw %struct.AVStream, ptr %153, i32 0, i32 13
  call void @llvm.lifetime.start.p0(i64 8, ptr %16) #5
  %155 = load ptr, ptr %7, align 8, !tbaa !30
  %156 = getelementptr inbounds nuw %struct.AVStream, ptr %155, i32 0, i32 5
  %157 = load i64, ptr %156, align 8
  %158 = call i64 @av_inv_q(i64 %157)
  store i64 %158, ptr %16, align 4
  call void @llvm.memcpy.p0.p0.i64(ptr align 8 %154, ptr align 4 %16, i64 8, i1 false), !tbaa.struct !56
  call void @llvm.lifetime.end.p0(i64 8, ptr %16) #5
  %159 = load ptr, ptr %7, align 8, !tbaa !30
  %160 = getelementptr inbounds nuw %struct.AVStream, ptr %159, i32 0, i32 3
  %161 = load ptr, ptr %160, align 8, !tbaa !32
  %162 = getelementptr inbounds nuw %struct.AVCodecParameters, ptr %161, i32 0, i32 0
  store i32 0, ptr %162, align 8, !tbaa !47
  %163 = load ptr, ptr %7, align 8, !tbaa !30
  %164 = getelementptr inbounds nuw %struct.AVStream, ptr %163, i32 0, i32 3
  %165 = load ptr, ptr %164, align 8, !tbaa !32
  %166 = getelementptr inbounds nuw %struct.AVCodecParameters, ptr %165, i32 0, i32 1
  store i32 119, ptr %166, align 4, !tbaa !48
  %167 = load ptr, ptr %7, align 8, !tbaa !30
  %168 = getelementptr inbounds nuw %struct.AVStream, ptr %167, i32 0, i32 3
  %169 = load ptr, ptr %168, align 8, !tbaa !32
  %170 = getelementptr inbounds nuw %struct.AVCodecParameters, ptr %169, i32 0, i32 13
  %171 = load i32, ptr %170, align 8, !tbaa !44
  %172 = sext i32 %171 to i64
  %173 = load ptr, ptr %7, align 8, !tbaa !30
  %174 = getelementptr inbounds nuw %struct.AVStream, ptr %173, i32 0, i32 3
  %175 = load ptr, ptr %174, align 8, !tbaa !32
  %176 = getelementptr inbounds nuw %struct.AVCodecParameters, ptr %175, i32 0, i32 14
  %177 = load i32, ptr %176, align 4, !tbaa !45
  %178 = sext i32 %177 to i64
  %179 = mul nsw i64 %172, %178
  %180 = icmp slt i64 %179, 65536
  %181 = select i1 %180, ptr @avio_rl16, ptr @avio_rl24
  %182 = load ptr, ptr %4, align 8, !tbaa !26
  %183 = getelementptr inbounds nuw %struct.MviDemuxContext, ptr %182, i32 0, i32 0
  store ptr %181, ptr %183, align 8, !tbaa !57
  %184 = load i32, ptr %13, align 4, !tbaa !39
  %185 = sext i32 %184 to i64
  %186 = shl i64 %185, 10
  %187 = load i32, ptr %9, align 4, !tbaa !39
  %188 = zext i32 %187 to i64
  %189 = udiv i64 %186, %188
  %190 = load ptr, ptr %4, align 8, !tbaa !26
  %191 = getelementptr inbounds nuw %struct.MviDemuxContext, ptr %190, i32 0, i32 2
  store i64 %189, ptr %191, align 8, !tbaa !59
  %192 = load ptr, ptr %4, align 8, !tbaa !26
  %193 = getelementptr inbounds nuw %struct.MviDemuxContext, ptr %192, i32 0, i32 2
  %194 = load i64, ptr %193, align 8, !tbaa !59
  %195 = icmp ule i64 %194, 512
  br i1 %195, label %196, label %200

196:                                              ; preds = %113
  %197 = load ptr, ptr %3, align 8, !tbaa !4
  %198 = load i32, ptr %13, align 4, !tbaa !39
  %199 = load i32, ptr %9, align 4, !tbaa !39
  call void (ptr, i32, ptr, ...) @av_log(ptr noundef %197, i32 noundef 16, ptr noundef @.str.3, i32 noundef %198, i32 noundef %199)
  store i32 -1094995529, ptr %2, align 4
  store i32 1, ptr %14, align 4
  br label %222

200:                                              ; preds = %113
  %201 = load ptr, ptr %6, align 8, !tbaa !30
  %202 = getelementptr inbounds nuw %struct.AVStream, ptr %201, i32 0, i32 3
  %203 = load ptr, ptr %202, align 8, !tbaa !32
  %204 = getelementptr inbounds nuw %struct.AVCodecParameters, ptr %203, i32 0, i32 25
  %205 = load i32, ptr %204, align 8, !tbaa !46
  %206 = mul nsw i32 %205, 830
  %207 = sext i32 %206 to i64
  %208 = load ptr, ptr %4, align 8, !tbaa !26
  %209 = getelementptr inbounds nuw %struct.MviDemuxContext, ptr %208, i32 0, i32 2
  %210 = load i64, ptr %209, align 8, !tbaa !59
  %211 = udiv i64 %207, %210
  %212 = sub i64 %211, 1
  %213 = load ptr, ptr %4, align 8, !tbaa !26
  %214 = getelementptr inbounds nuw %struct.MviDemuxContext, ptr %213, i32 0, i32 2
  %215 = load i64, ptr %214, align 8, !tbaa !59
  %216 = mul i64 %212, %215
  %217 = load ptr, ptr %4, align 8, !tbaa !26
  %218 = getelementptr inbounds nuw %struct.MviDemuxContext, ptr %217, i32 0, i32 1
  store i64 %216, ptr %218, align 8, !tbaa !60
  %219 = load i32, ptr %13, align 4, !tbaa !39
  %220 = load ptr, ptr %4, align 8, !tbaa !26
  %221 = getelementptr inbounds nuw %struct.MviDemuxContext, ptr %220, i32 0, i32 3
  store i32 %219, ptr %221, align 8, !tbaa !61
  store i32 0, ptr %2, align 4
  store i32 1, ptr %14, align 4
  br label %222

222:                                              ; preds = %200, %196, %109, %102, %40, %33, %27
  call void @llvm.lifetime.end.p0(i64 4, ptr %13) #5
  call void @llvm.lifetime.end.p0(i64 4, ptr %12) #5
  call void @llvm.lifetime.end.p0(i64 4, ptr %11) #5
  call void @llvm.lifetime.end.p0(i64 4, ptr %10) #5
  call void @llvm.lifetime.end.p0(i64 4, ptr %9) #5
  call void @llvm.lifetime.end.p0(i64 4, ptr %8) #5
  call void @llvm.lifetime.end.p0(i64 8, ptr %7) #5
  call void @llvm.lifetime.end.p0(i64 8, ptr %6) #5
  call void @llvm.lifetime.end.p0(i64 8, ptr %5) #5
  call void @llvm.lifetime.end.p0(i64 8, ptr %4) #5
  %223 = load i32, ptr %2, align 4
  ret i32 %223
}