; Function Attrs: nounwind uwtable
define internal range(i32 -2147483648, 1) i32 @read_header(ptr noundef %0) #0 {
  %2 = getelementptr inbounds nuw i8, ptr %0, i64 24
  %3 = load ptr, ptr %2, align 8, !tbaa !4
  %4 = getelementptr inbounds nuw i8, ptr %0, i64 32
  %5 = load ptr, ptr %4, align 8, !tbaa !24
  %6 = tail call ptr @avformat_new_stream(ptr noundef %0, ptr noundef null) #3
  %.not = icmp eq ptr %6, null
  br i1 %.not, label %97, label %7

7:                                                ; preds = %1
  %8 = tail call ptr @avformat_new_stream(ptr noundef nonnull %0, ptr noundef null) #3
  %.not74 = icmp eq ptr %8, null
  br i1 %.not74, label %97, label %9

9:                                                ; preds = %7
  %10 = getelementptr inbounds nuw i8, ptr %8, i64 16
  %11 = load ptr, ptr %10, align 8, !tbaa !25
  %12 = tail call i32 @ff_alloc_extradata(ptr noundef %11, i32 noundef 2) #3
  %13 = icmp slt i32 %12, 0
  br i1 %13, label %97, label %14

14:                                               ; preds = %9
  %15 = tail call i32 @avio_r8(ptr noundef %5) #3
  %16 = tail call i32 @avio_r8(ptr noundef %5) #3
  %17 = trunc i32 %16 to i8
  %18 = load ptr, ptr %10, align 8, !tbaa !25
  %19 = getelementptr inbounds nuw i8, ptr %18, i64 16
  %20 = load ptr, ptr %19, align 8, !tbaa !32
  store i8 %17, ptr %20, align 1, !tbaa !35
  %21 = tail call i32 @avio_r8(ptr noundef %5) #3
  %22 = trunc i32 %21 to i8
  %23 = load ptr, ptr %10, align 8, !tbaa !25
  %24 = getelementptr inbounds nuw i8, ptr %23, i64 16
  %25 = load ptr, ptr %24, align 8, !tbaa !32
  %26 = getelementptr inbounds nuw i8, ptr %25, i64 1
  store i8 %22, ptr %26, align 1, !tbaa !35
  %27 = tail call i32 @avio_rl32(ptr noundef %5) #3
  %28 = tail call i32 @avio_rl32(ptr noundef %5) #3
  %29 = tail call i32 @avio_rl16(ptr noundef %5) #3
  %30 = load ptr, ptr %10, align 8, !tbaa !25
  %31 = getelementptr inbounds nuw i8, ptr %30, i64 72
  store i32 %29, ptr %31, align 8, !tbaa !36
  %32 = tail call i32 @avio_rl16(ptr noundef %5) #3
  %33 = load ptr, ptr %10, align 8, !tbaa !25
  %34 = getelementptr inbounds nuw i8, ptr %33, i64 76
  store i32 %32, ptr %34, align 4, !tbaa !37
  %35 = tail call i32 @avio_r8(ptr noundef %5) #3
  %36 = tail call i32 @avio_rl16(ptr noundef %5) #3
  %37 = getelementptr inbounds nuw i8, ptr %6, i64 16
  %38 = load ptr, ptr %37, align 8, !tbaa !25
  %39 = getelementptr inbounds nuw i8, ptr %38, i64 152
  store i32 %36, ptr %39, align 8, !tbaa !38
  %40 = tail call i32 @avio_rl32(ptr noundef %5) #3
  %41 = tail call i32 @avio_r8(ptr noundef %5) #3
  %42 = tail call i32 @avio_rl32(ptr noundef %5) #3
  %43 = tail call i32 @avio_rl16(ptr noundef %5) #3
  %44 = tail call i32 @avio_r8(ptr noundef %5) #3
  %45 = icmp eq i32 %27, 0
  %46 = icmp slt i32 %40, 1
  %or.cond = select i1 %45, i1 true, i1 %46
  br i1 %or.cond, label %97, label %47

47:                                               ; preds = %14
  %48 = icmp ne i32 %15, 7
  %49 = icmp ugt i32 %42, 213
  %or.cond3 = select i1 %48, i1 true, i1 %49
  br i1 %or.cond3, label %50, label %51

50:                                               ; preds = %47
  tail call void (ptr, i32, ptr, ...) @av_log(ptr noundef nonnull %0, i32 noundef 16, ptr noundef nonnull @.str.2, i32 noundef %15, i32 noundef %42) #3
  br label %97

51:                                               ; preds = %47
  %52 = load ptr, ptr %37, align 8, !tbaa !25
  %53 = getelementptr inbounds nuw i8, ptr %52, i64 152
  %54 = load i32, ptr %53, align 8, !tbaa !38
  tail call void @avpriv_set_pts_info(ptr noundef nonnull %6, i32 noundef 64, i32 noundef 1, i32 noundef %54) #3
  %55 = load ptr, ptr %37, align 8, !tbaa !25
  store i32 1, ptr %55, align 8, !tbaa !39
  %56 = getelementptr inbounds nuw i8, ptr %55, i64 4
  store i32 65541, ptr %56, align 4, !tbaa !40
  %57 = getelementptr inbounds nuw i8, ptr %55, i64 128
  store i32 1, ptr %57, align 8, !tbaa !41
  %.sroa.2.0..sroa_idx = getelementptr inbounds nuw i8, ptr %55, i64 132
  store i32 1, ptr %.sroa.2.0..sroa_idx, align 4, !tbaa !41
  %.sroa.3.0..sroa_idx = getelementptr inbounds nuw i8, ptr %55, i64 136
  store i64 4, ptr %.sroa.3.0..sroa_idx, align 8, !tbaa !35
  %.sroa.4.0..sroa_idx = getelementptr inbounds nuw i8, ptr %55, i64 144
  store ptr null, ptr %.sroa.4.0..sroa_idx, align 8, !tbaa !42
  %58 = load ptr, ptr %37, align 8, !tbaa !25
  %59 = getelementptr inbounds nuw i8, ptr %58, i64 56
  store i32 8, ptr %59, align 8, !tbaa !43
  %60 = getelementptr inbounds nuw i8, ptr %58, i64 152
  %61 = load i32, ptr %60, align 8, !tbaa !38
  %62 = shl nsw i32 %61, 3
  %63 = sext i32 %62 to i64
  %64 = getelementptr inbounds nuw i8, ptr %58, i64 48
  store i64 %63, ptr %64, align 8, !tbaa !44
  tail call void @avpriv_set_pts_info(ptr noundef nonnull %8, i32 noundef 64, i32 noundef %28, i32 noundef 1000000) #3
  %65 = getelementptr inbounds nuw i8, ptr %8, i64 88
  %66 = getelementptr inbounds nuw i8, ptr %8, i64 32
  %67 = load i64, ptr %66, align 8
  %.sroa.01.0.insert.insert.i = tail call i64 @llvm.fshl.i64(i64 %67, i64 %67, i64 32)
  store i64 %.sroa.01.0.insert.insert.i, ptr %65, align 8
  %68 = load ptr, ptr %10, align 8, !tbaa !25
  store i32 0, ptr %68, align 8, !tbaa !39
  %69 = getelementptr inbounds nuw i8, ptr %68, i64 4
  store i32 119, ptr %69, align 4, !tbaa !40
  %70 = getelementptr inbounds nuw i8, ptr %68, i64 72
  %71 = load i32, ptr %70, align 8, !tbaa !36
  %72 = sext i32 %71 to i64
  %73 = getelementptr inbounds nuw i8, ptr %68, i64 76
  %74 = load i32, ptr %73, align 4, !tbaa !37
  %75 = sext i32 %74 to i64
  %76 = mul nsw i64 %75, %72
  %77 = icmp slt i64 %76, 65536
  %78 = select i1 %77, ptr @avio_rl16, ptr @avio_rl24
  store ptr %78, ptr %3, align 8, !tbaa !45
  %79 = zext nneg i32 %40 to i64
  %80 = shl nuw nsw i64 %79, 10
  %81 = zext i32 %27 to i64
  %82 = udiv i64 %80, %81
  %83 = getelementptr inbounds nuw i8, ptr %3, i64 16
  store i64 %82, ptr %83, align 8, !tbaa !47
  %84 = icmp samesign ult i64 %82, 513
  br i1 %84, label %85, label %86

85:                                               ; preds = %51
  tail call void (ptr, i32, ptr, ...) @av_log(ptr noundef nonnull %0, i32 noundef 16, ptr noundef nonnull @.str.3, i32 noundef %40, i32 noundef %27) #3
  br label %97

86:                                               ; preds = %51
  %87 = load ptr, ptr %37, align 8, !tbaa !25
  %88 = getelementptr inbounds nuw i8, ptr %87, i64 152
  %89 = load i32, ptr %88, align 8, !tbaa !38
  %90 = mul nsw i32 %89, 830
  %91 = sext i32 %90 to i64
  %92 = udiv i64 %91, %82
  %93 = add nsw i64 %92, -1
  %94 = mul i64 %93, %82
  %95 = getelementptr inbounds nuw i8, ptr %3, i64 8
  store i64 %94, ptr %95, align 8, !tbaa !48
  %96 = getelementptr inbounds nuw i8, ptr %3, i64 24
  store i32 %40, ptr %96, align 8, !tbaa !49
  br label %97

97:                                               ; preds = %14, %9, %7, %1, %86, %85, %50
  %.0 = phi i32 [ -1094995529, %50 ], [ -1094995529, %85 ], [ 0, %86 ], [ -12, %1 ], [ -12, %7 ], [ %12, %9 ], [ -1094995529, %14 ]
  ret i32 %.0
}